target datalayout = "e-m:e-p270:32:32-p271:32:32-p272:64:64-i64:64-i128:128-f80:128-n8:16:32:64-S128"
target triple = "x86_64-pc-linux-gnu"

%struct.object_id = type { [32 x i8], i32 }

; Function Attrs: inlinehint nounwind uwtable
define internal void @oidcpy(ptr noundef %0, ptr noundef %1) #3 {
  %3 = alloca ptr, align 8
  %4 = alloca ptr, align 8
  store ptr %0, ptr %3, align 8, !tbaa !9
  store ptr %1, ptr %4, align 8, !tbaa !9
  %5 = load ptr, ptr %3, align 8, !tbaa !9
  %6 = getelementptr inbounds nuw %struct.object_id, ptr %5, i32 0, i32 0
  %7 = getelementptr inbounds [32 x i8], ptr %6, i64 0, i64 0
  %8 = load ptr, ptr %4, align 8, !tbaa !9
  %9 = getelementptr inbounds nuw %struct.object_id, ptr %8, i32 0, i32 0
  %10 = getelementptr inbounds [32 x i8], ptr %9, i64 0, i64 0
  call void @llvm.memcpy.p0.p0.i64(ptr align 4 %7, ptr align 4 %10, i64 32, i1 false)
  %11 = load ptr, ptr %4, align 8, !tbaa !9
  %12 = getelementptr inbounds nuw %struct.object_id, ptr %11, i32 0, i32 1
  %13 = load i32, ptr %12, align 4, !tbaa !31
  %14 = load ptr, ptr %3, align 8, !tbaa !9
  %15 = getelementptr inbounds nuw %struct.object_id, ptr %14, i32 0, i32 1
  store i32 %13, ptr %15, align 4, !tbaa !31
  ret void
}

; Function Attrs: nounwind uwtable
define dso_local void @shift_tree_by(ptr noundef %0, ptr noundef %1, ptr noundef %2, ptr noundef %3, ptr noundef %4) #0 {
  %6 = alloca ptr, align 8
  %7 = alloca ptr, align 8
  %8 = alloca ptr, align 8
  %9 = alloca ptr, align 8
  %10 = alloca ptr, align 8
  %11 = alloca %struct.object_id, align 4
  %12 = alloca %struct.object_id, align 4
  %13 = alloca i16, align 2
  %14 = alloca i16, align 2
  %15 = alloca i32, align 4
  %16 = alloca i32, align 4
  %17 = alloca i32, align 4
  %18 = alloca i32, align 4
  store ptr %0, ptr %6, align 8, !tbaa !4
  store ptr %1, ptr %7, align 8, !tbaa !9
  store ptr %2, ptr %8, align 8, !tbaa !9
  store ptr %3, ptr %9, align 8, !tbaa !9
  store ptr %4, ptr %10, align 8, !tbaa !13
  call void @llvm.lifetime.start.p0(i64 36, ptr %11) #9
  call void @llvm.lifetime.start.p0(i64 36, ptr %12) #9
  call void @llvm.lifetime.start.p0(i64 2, ptr %13) #9
  call void @llvm.lifetime.start.p0(i64 2, ptr %14) #9
  call void @llvm.lifetime.start.p0(i64 4, ptr %15) #9
  store i32 0, ptr %15, align 4, !tbaa !11
  %19 = load ptr, ptr %6, align 8, !tbaa !4
  %20 = load ptr, ptr %7, align 8, !tbaa !9
  %21 = load ptr, ptr %10, align 8, !tbaa !13
  %22 = call i32 @get_tree_entry(ptr noundef %19, ptr noundef %20, ptr noundef %21, ptr noundef %11, ptr noundef %13)
  %23 = icmp ne i32 %22, 0
  br i1 %23, label %32, label %24

24:                                               ; preds = %5
  %25 = load i16, ptr %13, align 2, !tbaa !27
  %26 = zext i16 %25 to i32
  %27 = and i32 %26, 61440
  %28 = icmp eq i32 %27, 16384
  br i1 %28, label %29, label %32

29:                                               ; preds = %24
  %30 = load i32, ptr %15, align 4, !tbaa !11
  %31 = or i32 %30, 1
  store i32 %31, ptr %15, align 4, !tbaa !11
  br label %32

32:                                               ; preds = %29, %24, %5
  %33 = load ptr, ptr %6, align 8, !tbaa !4
  %34 = load ptr, ptr %8, align 8, !tbaa !9
  %35 = load ptr, ptr %10, align 8, !tbaa !13
  %36 = call i32 @get_tree_entry(ptr noundef %33, ptr noundef %34, ptr noundef %35, ptr noundef %12, ptr noundef %14)
  %37 = icmp ne i32 %36, 0
  br i1 %37, label %46, label %38

38:                                               ; preds = %32
  %39 = load i16, ptr %14, align 2, !tbaa !27
  %40 = zext i16 %39 to i32
  %41 = and i32 %40, 61440
  %42 = icmp eq i32 %41, 16384
  br i1 %42, label %43, label %46

43:                                               ; preds = %38
  %44 = load i32, ptr %15, align 4, !tbaa !11
  %45 = or i32 %44, 2
  store i32 %45, ptr %15, align 4, !tbaa !11
  br label %46

46:                                               ; preds = %43, %38, %32
  %47 = load i32, ptr %15, align 4, !tbaa !11
  %48 = icmp eq i32 %47, 3
  br i1 %48, label %49, label %71

49:                                               ; preds = %46
  call void @llvm.lifetime.start.p0(i64 4, ptr %16) #9
  %50 = load ptr, ptr %6, align 8, !tbaa !4
  %51 = load ptr, ptr %7, align 8, !tbaa !9
  %52 = load ptr, ptr %8, align 8, !tbaa !9
  %53 = call i32 @score_trees(ptr noundef %50, ptr noundef %51, ptr noundef %52)
  store i32 %53, ptr %16, align 4, !tbaa !11
  call void @llvm.lifetime.start.p0(i64 4, ptr %17) #9
  store i32 0, ptr %15, align 4, !tbaa !11
  %54 = load ptr, ptr %6, align 8, !tbaa !4
  %55 = load ptr, ptr %8, align 8, !tbaa !9
  %56 = call i32 @score_trees(ptr noundef %54, ptr noundef %11, ptr noundef %55)
  store i32 %56, ptr %17, align 4, !tbaa !11
  %57 = load i32, ptr %17, align 4, !tbaa !11
  %58 = load i32, ptr %16, align 4, !tbaa !11
  %59 = icmp sgt i32 %57, %58
  br i1 %59, label %60, label %62

60:                                               ; preds = %49
  store i32 1, ptr %15, align 4, !tbaa !11
  %61 = load i32, ptr %17, align 4, !tbaa !11
  store i32 %61, ptr %16, align 4, !tbaa !11
  br label %62

62:                                               ; preds = %60, %49
  %63 = load ptr, ptr %6, align 8, !tbaa !4
  %64 = load ptr, ptr %7, align 8, !tbaa !9
  %65 = call i32 @score_trees(ptr noundef %63, ptr noundef %12, ptr noundef %64)
  store i32 %65, ptr %17, align 4, !tbaa !11
  %66 = load i32, ptr %17, align 4, !tbaa !11
  %67 = load i32, ptr %16, align 4, !tbaa !11
  %68 = icmp sgt i32 %66, %67
  br i1 %68, label %69, label %70

69:                                               ; preds = %62
  store i32 2, ptr %15, align 4, !tbaa !11
  br label %70

70:                                               ; preds = %69, %62
  call void @llvm.lifetime.end.p0(i64 4, ptr %17) #9
  call void @llvm.lifetime.end.p0(i64 4, ptr %16) #9
  br label %71

71:                                               ; preds = %70, %46
  %72 = load i32, ptr %15, align 4, !tbaa !11
  %73 = icmp ne i32 %72, 0
  br i1 %73, label %77, label %74

74:                                               ; preds = %71
  %75 = load ptr, ptr %9, align 8, !tbaa !9
  %76 = load ptr, ptr %8, align 8, !tbaa !9
  call void @oidcpy(ptr noundef %75, ptr noundef %76)
  store i32 1, ptr %18, align 4
  br label %90

77:                                               ; preds = %71
  %78 = load i32, ptr %15, align 4, !tbaa !11
  %79 = icmp eq i32 %78, 1
  br i1 %79, label %80, label %87

80:                                               ; preds = %77
  %81 = load ptr, ptr %6, align 8, !tbaa !4
  %82 = load ptr, ptr %7, align 8, !tbaa !9
  %83 = load ptr, ptr %10, align 8, !tbaa !13
  %84 = load ptr, ptr %8, align 8, !tbaa !9
  %85 = load ptr, ptr %9, align 8, !tbaa !9
  %86 = call i32 @splice_tree(ptr noundef %81, ptr noundef %82, ptr noundef %83, ptr noundef %84, ptr noundef %85)
  br label %89

87:                                               ; preds = %77
  %88 = load ptr, ptr %9, align 8, !tbaa !9
  call void @oidcpy(ptr noundef %88, ptr noundef %12)
  br label %89

89:                                               ; preds = %87, %80
  store i32 0, ptr %18, align 4
  br label %90

90:                                               ; preds = %89, %74
  call void @llvm.lifetime.end.p0(i64 4, ptr %15) #9
  call void @llvm.lifetime.end.p0(i64 2, ptr %14) #9
  call void @llvm.lifetime.end.p0(i64 2, ptr %13) #9
  call void @llvm.lifetime.end.p0(i64 36, ptr %12) #9
  call void @llvm.lifetime.end.p0(i64 36, ptr %11) #9
  %91 = load i32, ptr %18, align 4
  switch i32 %91, label %93 [
    i32 0, label %92
    i32 1, label %92
  ]

92:                                               ; preds = %90, %90
  ret void

93:                                               ; preds = %90
  unreachable
}