; Function Attrs: nounwind uwtable
define dso_local void @shift_tree_by(ptr noundef %0, ptr noundef %1, ptr noundef %2, ptr noundef %3, ptr noundef %4) local_unnamed_addr #0 {
  %6 = alloca %struct.object_id, align 4
  %7 = alloca %struct.object_id, align 4
  %8 = alloca i16, align 2
  %9 = alloca i16, align 2
  call void @llvm.lifetime.start.p0(i64 36, ptr nonnull %6) #11
  call void @llvm.lifetime.start.p0(i64 36, ptr nonnull %7) #11
  call void @llvm.lifetime.start.p0(i64 2, ptr nonnull %8) #11
  call void @llvm.lifetime.start.p0(i64 2, ptr nonnull %9) #11
  %10 = call i32 @get_tree_entry(ptr noundef %0, ptr noundef %1, ptr noundef %4, ptr noundef nonnull %6, ptr noundef nonnull %8) #11
  %.not = icmp eq i32 %10, 0
  %11 = load i16, ptr %8, align 2
  %12 = and i16 %11, -4096
  %13 = icmp eq i16 %12, 16384
  %narrow = select i1 %.not, i1 %13, i1 false
  %14 = call i32 @get_tree_entry(ptr noundef %0, ptr noundef %2, ptr noundef %4, ptr noundef nonnull %7, ptr noundef nonnull %9) #11
  %.not33 = icmp eq i32 %14, 0
  br i1 %.not33, label %15, label %.thread

15:                                               ; preds = %5
  %16 = load i16, ptr %9, align 2, !tbaa !48
  %17 = and i16 %16, -4096
  %18 = icmp eq i16 %17, 16384
  br i1 %18, label %19, label %.thread

19:                                               ; preds = %15
  br i1 %narrow, label %20, label %.thread41

20:                                               ; preds = %19
  %21 = call fastcc i32 @score_trees(ptr noundef %0, ptr noundef %1, ptr noundef %2)
  %22 = call fastcc i32 @score_trees(ptr noundef %0, ptr noundef nonnull %6, ptr noundef %2)
  %23 = icmp sgt i32 %22, %21
  %spec.select37 = call i32 @llvm.smax.i32(i32 %22, i32 %21)
  %24 = call fastcc i32 @score_trees(ptr noundef %0, ptr noundef nonnull %7, ptr noundef %1)
  %25 = icmp sgt i32 %24, %spec.select37
  br i1 %25, label %.thread41, label %.thread

.thread:                                          ; preds = %15, %5, %20
  %.2.in = phi i1 [ %23, %20 ], [ %narrow, %5 ], [ %narrow, %15 ]
  br i1 %.2.in, label %30, label %26

26:                                               ; preds = %.thread
  call void @llvm.memcpy.p0.p0.i64(ptr noundef nonnull align 4 dereferenceable(32) %3, ptr noundef nonnull readonly align 4 dereferenceable(32) %2, i64 32, i1 false)
  %27 = getelementptr inbounds nuw i8, ptr %2, i64 32
  %28 = load i32, ptr %27, align 4, !tbaa !11
  %29 = getelementptr inbounds nuw i8, ptr %3, i64 32
  store i32 %28, ptr %29, align 4, !tbaa !11
  br label %35

30:                                               ; preds = %.thread
  %31 = call fastcc i32 @splice_tree(ptr noundef %0, ptr noundef %1, ptr noundef %4, ptr noundef %2, ptr noundef %3)
  br label %35

.thread41:                                        ; preds = %20, %19
  call void @llvm.memcpy.p0.p0.i64(ptr noundef nonnull align 4 dereferenceable(32) %3, ptr noundef nonnull readonly align 4 dereferenceable(32) %7, i64 32, i1 false)
  %32 = getelementptr inbounds nuw i8, ptr %7, i64 32
  %33 = load i32, ptr %32, align 4, !tbaa !11
  %34 = getelementptr inbounds nuw i8, ptr %3, i64 32
  store i32 %33, ptr %34, align 4, !tbaa !11
  br label %35

35:                                               ; preds = %30, %.thread41, %26
  call void @llvm.lifetime.end.p0(i64 2, ptr nonnull %9) #11
  call void @llvm.lifetime.end.p0(i64 2, ptr nonnull %8) #11
  call void @llvm.lifetime.end.p0(i64 36, ptr nonnull %7) #11
  call void @llvm.lifetime.end.p0(i64 36, ptr nonnull %6) #11
  ret void
}